; ModuleID = '45/2597.c'
source_filename = "45/2597.c"
target datalayout = "e-m:e-p270:32:32-p271:32:32-p272:64:64-i64:64-f80:128-n8:16:32:64-S128"
target triple = "x86_64-pc-linux-gnu"

@.str = private unnamed_addr constant [3 x i8] c"%s\00", align 1
@.str.1 = private unnamed_addr constant [3 x i8] c"%d\00", align 1

; Function Attrs: noinline nounwind uwtable
define dso_local i32 @main(i32 %0, i8** %1) #0 {
  %3 = alloca i32, align 4
  %4 = alloca i32, align 4
  %5 = alloca i8**, align 8
  %6 = alloca [100 x i8], align 16
  %7 = alloca [100 x i8], align 16
  %8 = alloca i32, align 4
  %9 = alloca i32, align 4
  %10 = alloca i32, align 4
  %11 = alloca i32, align 4
  %12 = alloca i32, align 4
  %13 = alloca i32, align 4
  %14 = alloca i32, align 4
  store i32 0, i32* %3, align 4
  store i32 %0, i32* %4, align 4
  store i8** %1, i8*** %5, align 8
  %15 = getelementptr inbounds [100 x i8], [100 x i8]* %6, i64 0, i64 0
  %16 = call i32 (i8*, ...) @__isoc99_scanf(i8* getelementptr inbounds ([3 x i8], [3 x i8]* @.str, i64 0, i64 0), i8* %15)
  %17 = getelementptr inbounds [100 x i8], [100 x i8]* %7, i64 0, i64 0
  %18 = call i32 (i8*, ...) @__isoc99_scanf(i8* getelementptr inbounds ([3 x i8], [3 x i8]* @.str, i64 0, i64 0), i8* %17)
  store i32 0, i32* %10, align 4
  %19 = getelementptr inbounds [100 x i8], [100 x i8]* %6, i64 0, i64 0
  %20 = call i64 @strlen(i8* %19) #3
  %21 = trunc i64 %20 to i32
  store i32 %21, i32* %8, align 4
  %22 = getelementptr inbounds [100 x i8], [100 x i8]* %7, i64 0, i64 0
  %23 = call i64 @strlen(i8* %22) #3
  %24 = trunc i64 %23 to i32
  store i32 %24, i32* %9, align 4
  store i32 0, i32* %12, align 4
  store i32 0, i32* %13, align 4
  br label %25

25:                                               ; preds = %86, %2
  %26 = load i32, i32* %13, align 4
  %27 = load i32, i32* %9, align 4
  %28 = icmp slt i32 %26, %27
  br i1 %28, label %29, label %89

29:                                               ; preds = %25
  %30 = load i32, i32* %10, align 4
  %31 = icmp ne i32 %30, 1
  br i1 %31, label %32, label %84

32:                                               ; preds = %29
  %33 = load i32, i32* %12, align 4
  %34 = sext i32 %33 to i64
  %35 = getelementptr inbounds [100 x i8], [100 x i8]* %6, i64 0, i64 %34
  %36 = load i8, i8* %35, align 1
  %37 = sext i8 %36 to i32
  %38 = load i32, i32* %13, align 4
  %39 = sext i32 %38 to i64
  %40 = getelementptr inbounds [100 x i8], [100 x i8]* %7, i64 0, i64 %39
  %41 = load i8, i8* %40, align 1
  %42 = sext i8 %41 to i32
  %43 = icmp eq i32 %37, %42
  br i1 %43, label %44, label %83

44:                                               ; preds = %32
  %45 = load i32, i32* %13, align 4
  %46 = add nsw i32 %45, 1
  store i32 %46, i32* %14, align 4
  %47 = load i32, i32* %12, align 4
  %48 = add nsw i32 %47, 1
  store i32 %48, i32* %12, align 4
  br label %49

49:                                               ; preds = %79, %44
  %50 = load i32, i32* %12, align 4
  %51 = load i32, i32* %8, align 4
  %52 = icmp slt i32 %50, %51
  br i1 %52, label %53, label %82

53:                                               ; preds = %49
  %54 = load i32, i32* %12, align 4
  %55 = sext i32 %54 to i64
  %56 = getelementptr inbounds [100 x i8], [100 x i8]* %6, i64 0, i64 %55
  %57 = load i8, i8* %56, align 1
  %58 = sext i8 %57 to i32
  %59 = load i32, i32* %14, align 4
  %60 = sext i32 %59 to i64
  %61 = getelementptr inbounds [100 x i8], [100 x i8]* %7, i64 0, i64 %60
  %62 = load i8, i8* %61, align 1
  %63 = sext i8 %62 to i32
  %64 = icmp ne i32 %58, %63
  br i1 %64, label %65, label %66

65:                                               ; preds = %53
  store i32 0, i32* %12, align 4
  br label %82

66:                                               ; preds = %53
  %67 = load i32, i32* %12, align 4
  %68 = add nsw i32 %67, 1
  store i32 %68, i32* %12, align 4
  %69 = load i32, i32* %12, align 4
  %70 = load i32, i32* %8, align 4
  %71 = icmp eq i32 %69, %70
  br i1 %71, label %72, label %77

72:                                               ; preds = %66
  store i32 1, i32* %10, align 4
  %73 = load i32, i32* %14, align 4
  %74 = load i32, i32* %8, align 4
  %75 = sub nsw i32 %73, %74
  %76 = add nsw i32 %75, 1
  store i32 %76, i32* %11, align 4
  br label %77

77:                                               ; preds = %72, %66
  br label %78

78:                                               ; preds = %77
  br label %79

79:                                               ; preds = %78
  %80 = load i32, i32* %14, align 4
  %81 = add nsw i32 %80, 1
  store i32 %81, i32* %14, align 4
  br label %49

82:                                               ; preds = %65, %49
  br label %83

83:                                               ; preds = %82, %32
  br label %85

84:                                               ; preds = %29
  br label %89

85:                                               ; preds = %83
  br label %86

86:                                               ; preds = %85
  %87 = load i32, i32* %13, align 4
  %88 = add nsw i32 %87, 1
  store i32 %88, i32* %13, align 4
  br label %25

89:                                               ; preds = %84, %25
  %90 = load i32, i32* %11, align 4
  %91 = call i32 (i8*, ...) @printf(i8* getelementptr inbounds ([3 x i8], [3 x i8]* @.str.1, i64 0, i64 0), i32 %90)
  ret i32 0
}

declare dso_local i32 @__isoc99_scanf(i8*, ...) #1

; Function Attrs: nounwind readonly
declare dso_local i64 @strlen(i8*) #2

declare dso_local i32 @printf(i8*, ...) #1


!llvm.module.flags = !{!0}
!llvm.ident = !{!1}

!0 = !{i32 1, !"wchar_size", i32 4}
!1 = !{!"clang version 10.0.0-4ubuntu1 "}
